target datalayout = "e-m:e-p270:32:32-p271:32:32-p272:64:64-i64:64-i128:128-f80:128-n8:16:32:64-S128"
target triple = "x86_64-pc-linux-gnu"

%struct._cms_curve_struct = type { ptr, i32, ptr, ptr, ptr, i32, ptr }

; Function Attrs: nounwind uwtable
define hidden i32 @cmsIsToneCurveDescending(ptr noundef %0) #0 {
  %2 = alloca ptr, align 8
  store ptr %0, ptr %2, align 8
  %3 = load ptr, ptr %2, align 8
  %4 = getelementptr inbounds %struct._cms_curve_struct, ptr %3, i32 0, i32 6
  %5 = load ptr, ptr %4, align 8
  %6 = getelementptr inbounds i16, ptr %5, i64 0
  %7 = load i16, ptr %6, align 2
  %8 = zext i16 %7 to i32
  %9 = load ptr, ptr %2, align 8
  %10 = getelementptr inbounds %struct._cms_curve_struct, ptr %9, i32 0, i32 6
  %11 = load ptr, ptr %10, align 8
  %12 = load ptr, ptr %2, align 8
  %13 = getelementptr inbounds %struct._cms_curve_struct, ptr %12, i32 0, i32 5
  %14 = load i32, ptr %13, align 8
  %15 = sub i32 %14, 1
  %16 = zext i32 %15 to i64
  %17 = getelementptr inbounds i16, ptr %11, i64 %16
  %18 = load i16, ptr %17, align 2
  %19 = zext i16 %18 to i32
  %20 = icmp sgt i32 %8, %19
  %21 = zext i1 %20 to i32
  ret i32 %21
}

; Function Attrs: nounwind uwtable
define hidden i32 @cmsIsToneCurveMonotonic(ptr noundef %0) #0 {
  %2 = alloca i32, align 4
  %3 = alloca ptr, align 8
  %4 = alloca i32, align 4
  %5 = alloca i32, align 4
  %6 = alloca i32, align 4
  %7 = alloca i32, align 4
  store ptr %0, ptr %3, align 8
  %8 = load ptr, ptr %3, align 8
  %9 = getelementptr inbounds %struct._cms_curve_struct, ptr %8, i32 0, i32 5
  %10 = load i32, ptr %9, align 8
  store i32 %10, ptr %4, align 4
  %11 = load i32, ptr %4, align 4
  %12 = icmp ult i32 %11, 2
  br i1 %12, label %13, label %14

13:                                               ; preds = %1
  store i32 1, ptr %2, align 4
  br label %100

14:                                               ; preds = %1
  %15 = load ptr, ptr %3, align 8
  %16 = call i32 @cmsIsToneCurveDescending(ptr noundef %15)
  store i32 %16, ptr %7, align 4
  %17 = load i32, ptr %7, align 4
  %18 = icmp ne i32 %17, 0
  br i1 %18, label %19, label %57

19:                                               ; preds = %14
  %20 = load ptr, ptr %3, align 8
  %21 = getelementptr inbounds %struct._cms_curve_struct, ptr %20, i32 0, i32 6
  %22 = load ptr, ptr %21, align 8
  %23 = getelementptr inbounds i16, ptr %22, i64 0
  %24 = load i16, ptr %23, align 2
  %25 = zext i16 %24 to i32
  store i32 %25, ptr %6, align 4
  store i32 1, ptr %5, align 4
  br label %26

26:                                               ; preds = %53, %19
  %27 = load i32, ptr %5, align 4
  %28 = load i32, ptr %4, align 4
  %29 = icmp slt i32 %27, %28
  br i1 %29, label %30, label %56

30:                                               ; preds = %26
  %31 = load ptr, ptr %3, align 8
  %32 = getelementptr inbounds %struct._cms_curve_struct, ptr %31, i32 0, i32 6
  %33 = load ptr, ptr %32, align 8
  %34 = load i32, ptr %5, align 4
  %35 = sext i32 %34 to i64
  %36 = getelementptr inbounds i16, ptr %33, i64 %35
  %37 = load i16, ptr %36, align 2
  %38 = zext i16 %37 to i32
  %39 = load i32, ptr %6, align 4
  %40 = sub nsw i32 %38, %39
  %41 = icmp sgt i32 %40, 2
  br i1 %41, label %42, label %43

42:                                               ; preds = %30
  store i32 0, ptr %2, align 4
  br label %100

43:                                               ; preds = %30
  %44 = load ptr, ptr %3, align 8
  %45 = getelementptr inbounds %struct._cms_curve_struct, ptr %44, i32 0, i32 6
  %46 = load ptr, ptr %45, align 8
  %47 = load i32, ptr %5, align 4
  %48 = sext i32 %47 to i64
  %49 = getelementptr inbounds i16, ptr %46, i64 %48
  %50 = load i16, ptr %49, align 2
  %51 = zext i16 %50 to i32
  store i32 %51, ptr %6, align 4
  br label %52

52:                                               ; preds = %43
  br label %53

53:                                               ; preds = %52
  %54 = load i32, ptr %5, align 4
  %55 = add nsw i32 %54, 1
  store i32 %55, ptr %5, align 4
  br label %26, !llvm.loop !26

56:                                               ; preds = %26
  br label %99

57:                                               ; preds = %14
  %58 = load ptr, ptr %3, align 8
  %59 = getelementptr inbounds %struct._cms_curve_struct, ptr %58, i32 0, i32 6
  %60 = load ptr, ptr %59, align 8
  %61 = load i32, ptr %4, align 4
  %62 = sub i32 %61, 1
  %63 = zext i32 %62 to i64
  %64 = getelementptr inbounds i16, ptr %60, i64 %63
  %65 = load i16, ptr %64, align 2
  %66 = zext i16 %65 to i32
  store i32 %66, ptr %6, align 4
  %67 = load i32, ptr %4, align 4
  %68 = sub nsw i32 %67, 2
  store i32 %68, ptr %5, align 4
  br label %69

69:                                               ; preds = %95, %57
  %70 = load i32, ptr %5, align 4
  %71 = icmp sge i32 %70, 0
  br i1 %71, label %72, label %98

72:                                               ; preds = %69
  %73 = load ptr, ptr %3, align 8
  %74 = getelementptr inbounds %struct._cms_curve_struct, ptr %73, i32 0, i32 6
  %75 = load ptr, ptr %74, align 8
  %76 = load i32, ptr %5, align 4
  %77 = sext i32 %76 to i64
  %78 = getelementptr inbounds i16, ptr %75, i64 %77
  %79 = load i16, ptr %78, align 2
  %80 = zext i16 %79 to i32
  %81 = load i32, ptr %6, align 4
  %82 = sub nsw i32 %80, %81
  %83 = icmp sgt i32 %82, 2
  br i1 %83, label %84, label %85

84:                                               ; preds = %72
  store i32 0, ptr %2, align 4
  br label %100

85:                                               ; preds = %72
  %86 = load ptr, ptr %3, align 8
  %87 = getelementptr inbounds %struct._cms_curve_struct, ptr %86, i32 0, i32 6
  %88 = load ptr, ptr %87, align 8
  %89 = load i32, ptr %5, align 4
  %90 = sext i32 %89 to i64
  %91 = getelementptr inbounds i16, ptr %88, i64 %90
  %92 = load i16, ptr %91, align 2
  %93 = zext i16 %92 to i32
  store i32 %93, ptr %6, align 4
  br label %94

94:                                               ; preds = %85
  br label %95

95:                                               ; preds = %94
  %96 = load i32, ptr %5, align 4
  %97 = add nsw i32 %96, -1
  store i32 %97, ptr %5, align 4
  br label %69, !llvm.loop !27

98:                                               ; preds = %69
  br label %99

99:                                               ; preds = %98, %56
  store i32 1, ptr %2, align 4
  br label %100

100:                                              ; preds = %99, %84, %42, %13
  %101 = load i32, ptr %2, align 4
  ret i32 %101
}