; Function Attrs: nofree norecurse nosync nounwind memory(read, inaccessiblemem: none) uwtable
define hidden range(i32 0, 2) i32 @cmsIsToneCurveMonotonic(ptr nocapture noundef readonly %0) local_unnamed_addr #7 {
  %2 = getelementptr inbounds i8, ptr %0, i64 40
  %3 = load i32, ptr %2, align 8
  %4 = icmp ult i32 %3, 2
  br i1 %4, label %.loopexit, label %5

5:                                                ; preds = %1
  %6 = getelementptr inbounds i8, ptr %0, i64 48
  %7 = load ptr, ptr %6, align 8
  %8 = load i16, ptr %7, align 2
  %9 = add i32 %3, -1
  %10 = zext i32 %9 to i64
  %11 = getelementptr inbounds i16, ptr %7, i64 %10
  %12 = load i16, ptr %11, align 2
  %.not = icmp ugt i16 %8, %12
  %13 = icmp sgt i32 %3, 1
  br i1 %.not, label %14, label %22

14:                                               ; preds = %5
  br i1 %13, label %.lr.ph35.preheader, label %.loopexit

.lr.ph35.preheader:                               ; preds = %14
  %15 = zext i16 %8 to i32
  %wide.trip.count = zext nneg i32 %3 to i64
  br label %.lr.ph35

16:                                               ; preds = %.lr.ph35
  %indvars.iv.next = add nuw nsw i64 %indvars.iv, 1
  %exitcond.not = icmp eq i64 %indvars.iv.next, %wide.trip.count
  br i1 %exitcond.not, label %.loopexit, label %.lr.ph35, !llvm.loop !26

.lr.ph35:                                         ; preds = %.lr.ph35.preheader, %16
  %indvars.iv = phi i64 [ 1, %.lr.ph35.preheader ], [ %indvars.iv.next, %16 ]
  %.02334 = phi i32 [ %15, %.lr.ph35.preheader ], [ %19, %16 ]
  %17 = getelementptr inbounds i16, ptr %7, i64 %indvars.iv
  %18 = load i16, ptr %17, align 2
  %19 = zext i16 %18 to i32
  %20 = sub nsw i32 %19, %.02334
  %21 = icmp sgt i32 %20, 2
  br i1 %21, label %.loopexit, label %16

22:                                               ; preds = %5
  br i1 %13, label %.lr.ph.preheader, label %.loopexit

.lr.ph.preheader:                                 ; preds = %22
  %23 = add nsw i32 %3, -2
  %24 = zext i16 %12 to i32
  br label %.lr.ph

25:                                               ; preds = %.lr.ph
  %26 = add nsw i32 %.12529, -1
  %27 = icmp sgt i32 %.12529, 0
  br i1 %27, label %.lr.ph, label %.loopexit, !llvm.loop !27

.lr.ph:                                           ; preds = %.lr.ph.preheader, %25
  %.130 = phi i32 [ %31, %25 ], [ %24, %.lr.ph.preheader ]
  %.12529 = phi i32 [ %26, %25 ], [ %23, %.lr.ph.preheader ]
  %28 = zext nneg i32 %.12529 to i64
  %29 = getelementptr inbounds i16, ptr %7, i64 %28
  %30 = load i16, ptr %29, align 2
  %31 = zext i16 %30 to i32
  %32 = sub nsw i32 %31, %.130
  %33 = icmp sgt i32 %32, 2
  br i1 %33, label %.loopexit, label %25

.loopexit:                                        ; preds = %.lr.ph, %25, %.lr.ph35, %16, %22, %14, %1
  %.0 = phi i32 [ 1, %1 ], [ 1, %14 ], [ 1, %22 ], [ 0, %.lr.ph35 ], [ 1, %16 ], [ 0, %.lr.ph ], [ 1, %25 ]
  ret i32 %.0
}